target datalayout = "e-m:e-p270:32:32-p271:32:32-p272:64:64-i64:64-i128:128-f80:128-n8:16:32:64-S128"
target triple = "x86_64-pc-linux-gnu"

@xot_desegment = internal global i8 1, align 1
@x25_desegment = internal global i8 0, align 1

; Function Attrs: null_pointer_is_valid sspstrong uwtable
define internal i32 @dissect_xot_tcp(ptr noundef %0, ptr noundef %1, ptr noundef %2, ptr noundef %3) #0 {
  %5 = alloca ptr, align 8
  %6 = alloca ptr, align 8
  %7 = alloca ptr, align 8
  %8 = alloca ptr, align 8
  store ptr %0, ptr %5, align 8
  store ptr %1, ptr %6, align 8
  store ptr %2, ptr %7, align 8
  store ptr %3, ptr %8, align 8
  %9 = load i8, ptr @x25_desegment, align 1, !range !6, !noundef !7
  %10 = trunc i8 %9 to i1
  br i1 %10, label %11, label %14

11:                                               ; preds = %4
  %12 = load i8, ptr @xot_desegment, align 1, !range !6, !noundef !7
  %13 = trunc i8 %12 to i1
  br i1 %13, label %21, label %14

14:                                               ; preds = %11, %4
  %15 = load ptr, ptr %5, align 8
  %16 = load ptr, ptr %6, align 8
  %17 = load ptr, ptr %7, align 8
  %18 = load i8, ptr @xot_desegment, align 1, !range !6, !noundef !7
  %19 = trunc i8 %18 to i1
  %20 = load ptr, ptr %8, align 8
  call void @tcp_dissect_pdus(ptr noundef %15, ptr noundef %16, ptr noundef %17, i1 noundef zeroext %19, i32 noundef 4, ptr noundef @get_xot_pdu_len, ptr noundef @dissect_xot_pdu, ptr noundef %20)
  br label %28

21:                                               ; preds = %11
  %22 = load ptr, ptr %5, align 8
  %23 = load ptr, ptr %6, align 8
  %24 = load ptr, ptr %7, align 8
  %25 = load i8, ptr @xot_desegment, align 1, !range !6, !noundef !7
  %26 = trunc i8 %25 to i1
  %27 = load ptr, ptr %8, align 8
  call void @tcp_dissect_pdus(ptr noundef %22, ptr noundef %23, ptr noundef %24, i1 noundef zeroext %26, i32 noundef 4, ptr noundef @get_xot_pdu_len_mult, ptr noundef @dissect_xot_mult, ptr noundef %27)
  br label %28

28:                                               ; preds = %21, %14
  %29 = load ptr, ptr %5, align 8
  %30 = call i32 @tvb_reported_length(ptr noundef %29)
  ret i32 %30
}