; Function Attrs: null_pointer_is_valid sspstrong uwtable
define internal i32 @dissect_xot_tcp(ptr noundef %0, ptr noundef %1, ptr noundef %2, ptr noundef %3) #0 {
  %5 = load i8, ptr @x25_desegment, align 1, !range !6, !noundef !7
  %6 = trunc nuw i8 %5 to i1
  %.pre = load i8, ptr @xot_desegment, align 1, !range !6
  %7 = trunc nuw i8 %.pre to i1
  %8 = select i1 %6, i1 %7, i1 false
  br i1 %8, label %9, label %._crit_edge

._crit_edge:                                      ; preds = %4
  %.not = xor i1 %6, true
  %.mux = select i1 %.not, i1 %7, i1 false
  tail call void @tcp_dissect_pdus(ptr noundef %0, ptr noundef %1, ptr noundef %2, i1 noundef zeroext %.mux, i32 noundef 4, ptr noundef nonnull @get_xot_pdu_len, ptr noundef nonnull @dissect_xot_pdu, ptr noundef %3)
  br label %10

9:                                                ; preds = %4
  tail call void @tcp_dissect_pdus(ptr noundef %0, ptr noundef %1, ptr noundef %2, i1 noundef zeroext true, i32 noundef 4, ptr noundef nonnull @get_xot_pdu_len_mult, ptr noundef nonnull @dissect_xot_mult, ptr noundef %3)
  br label %10

10:                                               ; preds = %9, %._crit_edge
  %11 = tail call i32 @tvb_reported_length(ptr noundef %0)
  ret i32 %11
}